; Function Attrs: nounwind sspstrong uwtable
define hidden void @pm_buffer_append_zeroes(ptr noundef captures(none) %0, i64 noundef %1) local_unnamed_addr #4 {
  %3 = load i64, ptr %0, align 8, !tbaa !7
  %4 = add i64 %3, %1
  %5 = getelementptr inbounds nuw i8, ptr %0, i64 8
  %6 = load i64, ptr %5, align 8, !tbaa !14
  %7 = icmp ugt i64 %4, %6
  br i1 %7, label %8, label %._crit_edge

._crit_edge:                                      ; preds = %2
  %.phi.trans.insert = getelementptr inbounds nuw i8, ptr %0, i64 16
  %.pre = load ptr, ptr %.phi.trans.insert, align 8, !tbaa !15
  br label %21

8:                                                ; preds = %2
  %9 = icmp eq i64 %6, 0
  br i1 %9, label %10, label %11

10:                                               ; preds = %8
  store i64 1, ptr %5, align 8, !tbaa !14
  br label %11

11:                                               ; preds = %10, %8
  %.promoted.i = phi i64 [ 1, %10 ], [ %6, %8 ]
  %12 = icmp ugt i64 %4, %.promoted.i
  br i1 %12, label %.lr.ph.i, label %16

.lr.ph.i:                                         ; preds = %11, %.lr.ph.i
  %13 = phi i64 [ %14, %.lr.ph.i ], [ %.promoted.i, %11 ]
  %14 = shl i64 %13, 1
  %15 = icmp ugt i64 %4, %14
  br i1 %15, label %.lr.ph.i, label %._crit_edge.i, !llvm.loop !16

._crit_edge.i:                                    ; preds = %.lr.ph.i
  store i64 %14, ptr %5, align 8, !tbaa !14
  br label %16

16:                                               ; preds = %._crit_edge.i, %11
  %.lcssa.i = phi i64 [ %14, %._crit_edge.i ], [ %.promoted.i, %11 ]
  %17 = getelementptr inbounds nuw i8, ptr %0, i64 16
  %18 = load ptr, ptr %17, align 8, !tbaa !15
  %19 = tail call ptr @realloc(ptr noundef %18, i64 noundef %.lcssa.i) #18
  store ptr %19, ptr %17, align 8, !tbaa !15
  %20 = icmp eq ptr %19, null
  br i1 %20, label %pm_buffer_append_length.exit, label %21

21:                                               ; preds = %._crit_edge, %16
  %22 = phi ptr [ %.pre, %._crit_edge ], [ %19, %16 ]
  store i64 %4, ptr %0, align 8, !tbaa !7
  %23 = getelementptr i8, ptr %22, i64 %3
  tail call void @llvm.memset.p0.i64(ptr noundef nonnull align 1 %23, i8 noundef 0, i64 noundef %1, i1 noundef false) #19
  br label %pm_buffer_append_length.exit

pm_buffer_append_length.exit:                     ; preds = %16, %21
  ret void
}